(lp1
S'image_06949'
p2
aS'image_06929'
p3
aS'image_06930'
p4
aS'image_06931'
p5
aS'image_06932'
p6
aS'image_06933'
p7
aS'image_06934'
p8
aS'image_06935'
p9
aS'image_06936'
p10
aS'image_06937'
p11
aS'image_06938'
p12
aS'image_06939'
p13
aS'image_06940'
p14
aS'image_06941'
p15
aS'image_06942'
p16
aS'image_06943'
p17
aS'image_06944'
p18
aS'image_06945'
p19
aS'image_06946'
p20
aS'image_06947'
p21
aS'image_06948'
p22
aS'image_06950'
p23
aS'image_06951'
p24
aS'image_06952'
p25
aS'image_06953'
p26
aS'image_06954'
p27
aS'image_06955'
p28
aS'image_06956'
p29
aS'image_06957'
p30
aS'image_06958'
p31
aS'image_06959'
p32
aS'image_06960'
p33
aS'image_06961'
p34
aS'image_06962'
p35
aS'image_06963'
p36
aS'image_06964'
p37
aS'image_06965'
p38
aS'image_06966'
p39
aS'image_06967'
p40
aS'image_06968'
p41
aS'image_06753'
p42
aS'image_06734'
p43
aS'image_06735'
p44
aS'image_06736'
p45
aS'image_06737'
p46
aS'image_06738'
p47
aS'image_06739'
p48
aS'image_06740'
p49
aS'image_06741'
p50
aS'image_06742'
p51
aS'image_06743'
p52
aS'image_06744'
p53
aS'image_06745'
p54
aS'image_06746'
p55
aS'image_06747'
p56
aS'image_06748'
p57
aS'image_06749'
p58
aS'image_06750'
p59
aS'image_06751'
p60
aS'image_06752'
p61
aS'image_06754'
p62
aS'image_06755'
p63
aS'image_06756'
p64
aS'image_06757'
p65
aS'image_06758'
p66
aS'image_06759'
p67
aS'image_06760'
p68
aS'image_06761'
p69
aS'image_06762'
p70
aS'image_06763'
p71
aS'image_06764'
p72
aS'image_06765'
p73
aS'image_06766'
p74
aS'image_06767'
p75
aS'image_06768'
p76
aS'image_06769'
p77
aS'image_06770'
p78
aS'image_06771'
p79
aS'image_06772'
p80
aS'image_06773'
p81
aS'image_05115'
p82
aS'image_05087'
p83
aS'image_05088'
p84
aS'image_05089'
p85
aS'image_05090'
p86
aS'image_05091'
p87
aS'image_05092'
p88
aS'image_05093'
p89
aS'image_05094'
p90
aS'image_05095'
p91
aS'image_05096'
p92
aS'image_05097'
p93
aS'image_05098'
p94
aS'image_05099'
p95
aS'image_05100'
p96
aS'image_05101'
p97
aS'image_05102'
p98
aS'image_05103'
p99
aS'image_05104'
p100
aS'image_05105'
p101
aS'image_05106'
p102
aS'image_05107'
p103
aS'image_05108'
p104
aS'image_05109'
p105
aS'image_05110'
p106
aS'image_05111'
p107
aS'image_05112'
p108
aS'image_05113'
p109
aS'image_05114'
p110
aS'image_05116'
p111
aS'image_05117'
p112
aS'image_05118'
p113
aS'image_05119'
p114
aS'image_05120'
p115
aS'image_05121'
p116
aS'image_05122'
p117
aS'image_05123'
p118
aS'image_05124'
p119
aS'image_05125'
p120
aS'image_05126'
p121
aS'image_05127'
p122
aS'image_05128'
p123
aS'image_05129'
p124
aS'image_05130'
p125
aS'image_05131'
p126
aS'image_05132'
p127
aS'image_05133'
p128
aS'image_05134'
p129
aS'image_05135'
p130
aS'image_05136'
p131
aS'image_05137'
p132
aS'image_05138'
p133
aS'image_05139'
p134
aS'image_05140'
p135
aS'image_05141'
p136
aS'image_05142'
p137
aS'image_05143'
p138
aS'image_05144'
p139
aS'image_05145'
p140
aS'image_05146'
p141
aS'image_06633'
p142
aS'image_06612'
p143
aS'image_06613'
p144
aS'image_06614'
p145
aS'image_06615'
p146
aS'image_06616'
p147
aS'image_06617'
p148
aS'image_06618'
p149
aS'image_06619'
p150
aS'image_06620'
p151
aS'image_06621'
p152
aS'image_06622'
p153
aS'image_06623'
p154
aS'image_06624'
p155
aS'image_06625'
p156
aS'image_06626'
p157
aS'image_06627'
p158
aS'image_06628'
p159
aS'image_06629'
p160
aS'image_06630'
p161
aS'image_06631'
p162
aS'image_06632'
p163
aS'image_06634'
p164
aS'image_06635'
p165
aS'image_06636'
p166
aS'image_06637'
p167
aS'image_06638'
p168
aS'image_06639'
p169
aS'image_06640'
p170
aS'image_06641'
p171
aS'image_06642'
p172
aS'image_06643'
p173
aS'image_06644'
p174
aS'image_06645'
p175
aS'image_06646'
p176
aS'image_06647'
p177
aS'image_06648'
p178
aS'image_06649'
p179
aS'image_06650'
p180
aS'image_06651'
p181
aS'image_05655'
p182
aS'image_05629'
p183
aS'image_05630'
p184
aS'image_05631'
p185
aS'image_05632'
p186
aS'image_05633'
p187
aS'image_05634'
p188
aS'image_05635'
p189
aS'image_05636'
p190
aS'image_05637'
p191
aS'image_05638'
p192
aS'image_05639'
p193
aS'image_05640'
p194
aS'image_05641'
p195
aS'image_05642'
p196
aS'image_05643'
p197
aS'image_05644'
p198
aS'image_05645'
p199
aS'image_05646'
p200
aS'image_05647'
p201
aS'image_05648'
p202
aS'image_05649'
p203
aS'image_05650'
p204
aS'image_05651'
p205
aS'image_05652'
p206
aS'image_05653'
p207
aS'image_05654'
p208
aS'image_05656'
p209
aS'image_05657'
p210
aS'image_05658'
p211
aS'image_05659'
p212
aS'image_05660'
p213
aS'image_05661'
p214
aS'image_05662'
p215
aS'image_05663'
p216
aS'image_05664'
p217
aS'image_05665'
p218
aS'image_05666'
p219
aS'image_05667'
p220
aS'image_05668'
p221
aS'image_05669'
p222
aS'image_05670'
p223
aS'image_05671'
p224
aS'image_05672'
p225
aS'image_05673'
p226
aS'image_05674'
p227
aS'image_05675'
p228
aS'image_05676'
p229
aS'image_05677'
p230
aS'image_05678'
p231
aS'image_05679'
p232
aS'image_05680'
p233
aS'image_05681'
p234
aS'image_05682'
p235
aS'image_05683'
p236
aS'image_05684'
p237
aS'image_05180'
p238
aS'image_05147'
p239
aS'image_05148'
p240
aS'image_05149'
p241
aS'image_05150'
p242
aS'image_05151'
p243
aS'image_05152'
p244
aS'image_05153'
p245
aS'image_05154'
p246
aS'image_05155'
p247
aS'image_05156'
p248
aS'image_05157'
p249
aS'image_05158'
p250
aS'image_05159'
p251
aS'image_05160'
p252
aS'image_05161'
p253
aS'image_05162'
p254
aS'image_05163'
p255
aS'image_05164'
p256
aS'image_05165'
p257
aS'image_05166'
p258
aS'image_05167'
p259
aS'image_05168'
p260
aS'image_05169'
p261
aS'image_05170'
p262
aS'image_05171'
p263
aS'image_05172'
p264
aS'image_05173'
p265
aS'image_05174'
p266
aS'image_05175'
p267
aS'image_05176'
p268
aS'image_05177'
p269
aS'image_05178'
p270
aS'image_05179'
p271
aS'image_05181'
p272
aS'image_05182'
p273
aS'image_05183'
p274
aS'image_05184'
p275
aS'image_05185'
p276
aS'image_05186'
p277
aS'image_05187'
p278
aS'image_05188'
p279
aS'image_05189'
p280
aS'image_05190'
p281
aS'image_05191'
p282
aS'image_05192'
p283
aS'image_05193'
p284
aS'image_05194'
p285
aS'image_05195'
p286
aS'image_05196'
p287
aS'image_05197'
p288
aS'image_05198'
p289
aS'image_05199'
p290
aS'image_05200'
p291
aS'image_05201'
p292
aS'image_05202'
p293
aS'image_05203'
p294
aS'image_05204'
p295
aS'image_05205'
p296
aS'image_05206'
p297
aS'image_05207'
p298
aS'image_05208'
p299
aS'image_05209'
p300
aS'image_05210'
p301
aS'image_05211'
p302
aS'image_07184'
p303
aS'image_07162'
p304
aS'image_07163'
p305
aS'image_07164'
p306
aS'image_07165'
p307
aS'image_07166'
p308
aS'image_07167'
p309
aS'image_07168'
p310
aS'image_07169'
p311
aS'image_07170'
p312
aS'image_07171'
p313
aS'image_07172'
p314
aS'image_07173'
p315
aS'image_07174'
p316
aS'image_07175'
p317
aS'image_07176'
p318
aS'image_07177'
p319
aS'image_07178'
p320
aS'image_07179'
p321
aS'image_07180'
p322
aS'image_07181'
p323
aS'image_07182'
p324
aS'image_07183'
p325
aS'image_07185'
p326
aS'image_07186'
p327
aS'image_07187'
p328
aS'image_07188'
p329
aS'image_07189'
p330
aS'image_07190'
p331
aS'image_07191'
p332
aS'image_07192'
p333
aS'image_07193'
p334
aS'image_07194'
p335
aS'image_07195'
p336
aS'image_07196'
p337
aS'image_07197'
p338
aS'image_07198'
p339
aS'image_07199'
p340
aS'image_08105'
p341
aS'image_08106'
p342
aS'image_08107'
p343
aS'image_08108'
p344
aS'image_08109'
p345
aS'image_08110'
p346
aS'image_08111'
p347
aS'image_07221'
p348
aS'image_07200'
p349
aS'image_07201'
p350
aS'image_07202'
p351
aS'image_07203'
p352
aS'image_07204'
p353
aS'image_07205'
p354
aS'image_07206'
p355
aS'image_07207'
p356
aS'image_07208'
p357
aS'image_07209'
p358
aS'image_07210'
p359
aS'image_07211'
p360
aS'image_07212'
p361
aS'image_07213'
p362
aS'image_07214'
p363
aS'image_07215'
p364
aS'image_07216'
p365
aS'image_07217'
p366
aS'image_07218'
p367
aS'image_07219'
p368
aS'image_07220'
p369
aS'image_07222'
p370
aS'image_07223'
p371
aS'image_07224'
p372
aS'image_07225'
p373
aS'image_07226'
p374
aS'image_07227'
p375
aS'image_07228'
p376
aS'image_07229'
p377
aS'image_07230'
p378
aS'image_07231'
p379
aS'image_07232'
p380
aS'image_07233'
p381
aS'image_08099'
p382
aS'image_08100'
p383
aS'image_08101'
p384
aS'image_08102'
p385
aS'image_08103'
p386
aS'image_08104'
p387
aS'image_03284'
p388
aS'image_03285'
p389
aS'image_03286'
p390
aS'image_03287'
p391
aS'image_03288'
p392
aS'image_03289'
p393
aS'image_03290'
p394
aS'image_03291'
p395
aS'image_03292'
p396
aS'image_03293'
p397
aS'image_03294'
p398
aS'image_03295'
p399
aS'image_03296'
p400
aS'image_03297'
p401
aS'image_03298'
p402
aS'image_03299'
p403
aS'image_03300'
p404
aS'image_03301'
p405
aS'image_03302'
p406
aS'image_03303'
p407
aS'image_03304'
p408
aS'image_03328'
p409
aS'image_03329'
p410
aS'image_03330'
p411
aS'image_03331'
p412
aS'image_03332'
p413
aS'image_03333'
p414
aS'image_03334'
p415
aS'image_03335'
p416
aS'image_03336'
p417
aS'image_03337'
p418
aS'image_03338'
p419
aS'image_03339'
p420
aS'image_03340'
p421
aS'image_03341'
p422
aS'image_03342'
p423
aS'image_03343'
p424
aS'image_03344'
p425
aS'image_03345'
p426
aS'image_03346'
p427
aS'image_03347'
p428
aS'image_03306'
p429
aS'image_03307'
p430
aS'image_03308'
p431
aS'image_03309'
p432
aS'image_03310'
p433
aS'image_03311'
p434
aS'image_03312'
p435
aS'image_03313'
p436
aS'image_03314'
p437
aS'image_03315'
p438
aS'image_03316'
p439
aS'image_03317'
p440
aS'image_03318'
p441
aS'image_03319'
p442
aS'image_03320'
p443
aS'image_03321'
p444
aS'image_03322'
p445
aS'image_03323'
p446
aS'image_03324'
p447
aS'image_03325'
p448
aS'image_03326'
p449
aS'image_03349'
p450
aS'image_03350'
p451
aS'image_03351'
p452
aS'image_03352'
p453
aS'image_03353'
p454
aS'image_03354'
p455
aS'image_03355'
p456
aS'image_03356'
p457
aS'image_03357'
p458
aS'image_03358'
p459
aS'image_03359'
p460
aS'image_03360'
p461
aS'image_03361'
p462
aS'image_03362'
p463
aS'image_03363'
p464
aS'image_03364'
p465
aS'image_03365'
p466
aS'image_03366'
p467
aS'image_03367'
p468
aS'image_03368'
p469
aS'image_03305'
p470
aS'image_03327'
p471
aS'image_03348'
p472
aS'image_06419'
p473
aS'image_06395'
p474
aS'image_06396'
p475
aS'image_06397'
p476
aS'image_06398'
p477
aS'image_06399'
p478
aS'image_06400'
p479
aS'image_06401'
p480
aS'image_06402'
p481
aS'image_06403'
p482
aS'image_06404'
p483
aS'image_06405'
p484
aS'image_06406'
p485
aS'image_06407'
p486
aS'image_06408'
p487
aS'image_06409'
p488
aS'image_06410'
p489
aS'image_06411'
p490
aS'image_06412'
p491
aS'image_06413'
p492
aS'image_06414'
p493
aS'image_06415'
p494
aS'image_06416'
p495
aS'image_06417'
p496
aS'image_06418'
p497
aS'image_06420'
p498
aS'image_06421'
p499
aS'image_06422'
p500
aS'image_06423'
p501
aS'image_06424'
p502
aS'image_06425'
p503
aS'image_06426'
p504
aS'image_06427'
p505
aS'image_06428'
p506
aS'image_06429'
p507
aS'image_06430'
p508
aS'image_06431'
p509
aS'image_06432'
p510
aS'image_06433'
p511
aS'image_06434'
p512
aS'image_06435'
p513
aS'image_06436'
p514
aS'image_06437'
p515
aS'image_06438'
p516
aS'image_06439'
p517
aS'image_06440'
p518
aS'image_07110'
p519
aS'image_07086'
p520
aS'image_07087'
p521
aS'image_07088'
p522
aS'image_07089'
p523
aS'image_07090'
p524
aS'image_07091'
p525
aS'image_07092'
p526
aS'image_07093'
p527
aS'image_07094'
p528
aS'image_07095'
p529
aS'image_07096'
p530
aS'image_07097'
p531
aS'image_07098'
p532
aS'image_07099'
p533
aS'image_07100'
p534
aS'image_07101'
p535
aS'image_07102'
p536
aS'image_07103'
p537
aS'image_07104'
p538
aS'image_07105'
p539
aS'image_07106'
p540
aS'image_07107'
p541
aS'image_07108'
p542
aS'image_07109'
p543
aS'image_07111'
p544
aS'image_07112'
p545
aS'image_07113'
p546
aS'image_07114'
p547
aS'image_07115'
p548
aS'image_07116'
p549
aS'image_07117'
p550
aS'image_07118'
p551
aS'image_07119'
p552
aS'image_07120'
p553
aS'image_07121'
p554
aS'image_07122'
p555
aS'image_08090'
p556
aS'image_08091'
p557
aS'image_08092'
p558
aS'image_08093'
p559
aS'image_08094'
p560
aS'image_08095'
p561
aS'image_08096'
p562
aS'image_08097'
p563
aS'image_03095'
p564
aS'image_03096'
p565
aS'image_03097'
p566
aS'image_03098'
p567
aS'image_03099'
p568
aS'image_03100'
p569
aS'image_03101'
p570
aS'image_03102'
p571
aS'image_03103'
p572
aS'image_03104'
p573
aS'image_03105'
p574
aS'image_03106'
p575
aS'image_03107'
p576
aS'image_03108'
p577
aS'image_03109'
p578
aS'image_03110'
p579
aS'image_03111'
p580
aS'image_03112'
p581
aS'image_03113'
p582
aS'image_03114'
p583
aS'image_03140'
p584
aS'image_03141'
p585
aS'image_03142'
p586
aS'image_03143'
p587
aS'image_03144'
p588
aS'image_03145'
p589
aS'image_03146'
p590
aS'image_03147'
p591
aS'image_03148'
p592
aS'image_03149'
p593
aS'image_03150'
p594
aS'image_03151'
p595
aS'image_03152'
p596
aS'image_03153'
p597
aS'image_03154'
p598
aS'image_03155'
p599
aS'image_03156'
p600
aS'image_03157'
p601
aS'image_03158'
p602
aS'image_03159'
p603
aS'image_03160'
p604
aS'image_03162'
p605
aS'image_03163'
p606
aS'image_03164'
p607
aS'image_03165'
p608
aS'image_03166'
p609
aS'image_03167'
p610
aS'image_03168'
p611
aS'image_03169'
p612
aS'image_03170'
p613
aS'image_03171'
p614
aS'image_03172'
p615
aS'image_03173'
p616
aS'image_03174'
p617
aS'image_03175'
p618
aS'image_03176'
p619
aS'image_03177'
p620
aS'image_03178'
p621
aS'image_03179'
p622
aS'image_03180'
p623
aS'image_03181'
p624
aS'image_03116'
p625
aS'image_03117'
p626
aS'image_03118'
p627
aS'image_03119'
p628
aS'image_03120'
p629
aS'image_03121'
p630
aS'image_03122'
p631
aS'image_03123'
p632
aS'image_03124'
p633
aS'image_03125'
p634
aS'image_03126'
p635
aS'image_03127'
p636
aS'image_03128'
p637
aS'image_03129'
p638
aS'image_03130'
p639
aS'image_03131'
p640
aS'image_03132'
p641
aS'image_03133'
p642
aS'image_03134'
p643
aS'image_03135'
p644
aS'image_03136'
p645
aS'image_03137'
p646
aS'image_03138'
p647
aS'image_03115'
p648
aS'image_03139'
p649
aS'image_03161'
p650
aS'image_03994'
p651
aS'image_03995'
p652
aS'image_03996'
p653
aS'image_03997'
p654
aS'image_03998'
p655
aS'image_03999'
p656
aS'image_04000'
p657
aS'image_04001'
p658
aS'image_04002'
p659
aS'image_04003'
p660
aS'image_04004'
p661
aS'image_04005'
p662
aS'image_04006'
p663
aS'image_04007'
p664
aS'image_04008'
p665
aS'image_04009'
p666
aS'image_04010'
p667
aS'image_04011'
p668
aS'image_04012'
p669
aS'image_04013'
p670
aS'image_04014'
p671
aS'image_04015'
p672
aS'image_04016'
p673
aS'image_04017'
p674
aS'image_04018'
p675
aS'image_04041'
p676
aS'image_04042'
p677
aS'image_04043'
p678
aS'image_04044'
p679
aS'image_04045'
p680
aS'image_04046'
p681
aS'image_04047'
p682
aS'image_04048'
p683
aS'image_04049'
p684
aS'image_04050'
p685
aS'image_04051'
p686
aS'image_04052'
p687
aS'image_04053'
p688
aS'image_04054'
p689
aS'image_04055'
p690
aS'image_04056'
p691
aS'image_04057'
p692
aS'image_04058'
p693
aS'image_04020'
p694
aS'image_04021'
p695
aS'image_04022'
p696
aS'image_04023'
p697
aS'image_04024'
p698
aS'image_04025'
p699
aS'image_04026'
p700
aS'image_04027'
p701
aS'image_04028'
p702
aS'image_04029'
p703
aS'image_04030'
p704
aS'image_04031'
p705
aS'image_04032'
p706
aS'image_04033'
p707
aS'image_04034'
p708
aS'image_04035'
p709
aS'image_04036'
p710
aS'image_04037'
p711
aS'image_04038'
p712
aS'image_04039'
p713
aS'image_04060'
p714
aS'image_04061'
p715
aS'image_04062'
p716
aS'image_04063'
p717
aS'image_04064'
p718
aS'image_04065'
p719
aS'image_04066'
p720
aS'image_04067'
p721
aS'image_04068'
p722
aS'image_04069'
p723
aS'image_04070'
p724
aS'image_04071'
p725
aS'image_04072'
p726
aS'image_04073'
p727
aS'image_04074'
p728
aS'image_04075'
p729
aS'image_04076'
p730
aS'image_04077'
p731
aS'image_04078'
p732
aS'image_04079'
p733
aS'image_04080'
p734
aS'image_04019'
p735
aS'image_04040'
p736
aS'image_04059'
p737
aS'image_05771'
p738
aS'image_05744'
p739
aS'image_05745'
p740
aS'image_05746'
p741
aS'image_05747'
p742
aS'image_05748'
p743
aS'image_05749'
p744
aS'image_05750'
p745
aS'image_05751'
p746
aS'image_05752'
p747
aS'image_05753'
p748
aS'image_05754'
p749
aS'image_05755'
p750
aS'image_05756'
p751
aS'image_05757'
p752
aS'image_05758'
p753
aS'image_05759'
p754
aS'image_05760'
p755
aS'image_05761'
p756
aS'image_05762'
p757
aS'image_05763'
p758
aS'image_05764'
p759
aS'image_05765'
p760
aS'image_05766'
p761
aS'image_05767'
p762
aS'image_05768'
p763
aS'image_05769'
p764
aS'image_05770'
p765
aS'image_05772'
p766
aS'image_05773'
p767
aS'image_05774'
p768
aS'image_05775'
p769
aS'image_05776'
p770
aS'image_05777'
p771
aS'image_05778'
p772
aS'image_05779'
p773
aS'image_05780'
p774
aS'image_05781'
p775
aS'image_05782'
p776
aS'image_05783'
p777
aS'image_05784'
p778
aS'image_05785'
p779
aS'image_05786'
p780
aS'image_05787'
p781
aS'image_05788'
p782
aS'image_05789'
p783
aS'image_05790'
p784
aS'image_05791'
p785
aS'image_05792'
p786
aS'image_06071'
p787
aS'image_06049'
p788
aS'image_06050'
p789
aS'image_06051'
p790
aS'image_06052'
p791
aS'image_06053'
p792
aS'image_06054'
p793
aS'image_06055'
p794
aS'image_06056'
p795
aS'image_06057'
p796
aS'image_06058'
p797
aS'image_06059'
p798
aS'image_06060'
p799
aS'image_06061'
p800
aS'image_06062'
p801
aS'image_06063'
p802
aS'image_06064'
p803
aS'image_06065'
p804
aS'image_06066'
p805
aS'image_06067'
p806
aS'image_06068'
p807
aS'image_06069'
p808
aS'image_06070'
p809
aS'image_06072'
p810
aS'image_06073'
p811
aS'image_06074'
p812
aS'image_06075'
p813
aS'image_06076'
p814
aS'image_06077'
p815
aS'image_06078'
p816
aS'image_06079'
p817
aS'image_06080'
p818
aS'image_06081'
p819
aS'image_06082'
p820
aS'image_06083'
p821
aS'image_06084'
p822
aS'image_06085'
p823
aS'image_06086'
p824
aS'image_06087'
p825
aS'image_06088'
p826
aS'image_06089'
p827
aS'image_06090'
p828
aS'image_06091'
p829
aS'image_06092'
p830
aS'image_06093'
p831
aS'image_06094'
p832
aS'image_06095'
p833
aS'image_06096'
p834
aS'image_06371'
p835
aS'image_06346'
p836
aS'image_06347'
p837
aS'image_06348'
p838
aS'image_06349'
p839
aS'image_06350'
p840
aS'image_06351'
p841
aS'image_06352'
p842
aS'image_06353'
p843
aS'image_06354'
p844
aS'image_06355'
p845
aS'image_06356'
p846
aS'image_06357'
p847
aS'image_06358'
p848
aS'image_06359'
p849
aS'image_06360'
p850
aS'image_06361'
p851
aS'image_06362'
p852
aS'image_06363'
p853
aS'image_06364'
p854
aS'image_06365'
p855
aS'image_06366'
p856
aS'image_06367'
p857
aS'image_06368'
p858
aS'image_06369'
p859
aS'image_06370'
p860
aS'image_06372'
p861
aS'image_06373'
p862
aS'image_06374'
p863
aS'image_06375'
p864
aS'image_06376'
p865
aS'image_06377'
p866
aS'image_06378'
p867
aS'image_06379'
p868
aS'image_06380'
p869
aS'image_06381'
p870
aS'image_06382'
p871
aS'image_06383'
p872
aS'image_06384'
p873
aS'image_06385'
p874
aS'image_06386'
p875
aS'image_06387'
p876
aS'image_06388'
p877
aS'image_06389'
p878
aS'image_06390'
p879
aS'image_06391'
p880
aS'image_06392'
p881
aS'image_06393'
p882
aS'image_06394'
p883
aS'image_06672'
p884
aS'image_06652'
p885
aS'image_06653'
p886
aS'image_06654'
p887
aS'image_06655'
p888
aS'image_06656'
p889
aS'image_06657'
p890
aS'image_06658'
p891
aS'image_06659'
p892
aS'image_06660'
p893
aS'image_06661'
p894
aS'image_06662'
p895
aS'image_06663'
p896
aS'image_06664'
p897
aS'image_06665'
p898
aS'image_06666'
p899
aS'image_06667'
p900
aS'image_06668'
p901
aS'image_06669'
p902
aS'image_06670'
p903
aS'image_06671'
p904
aS'image_06673'
p905
aS'image_06674'
p906
aS'image_06675'
p907
aS'image_06676'
p908
aS'image_06677'
p909
aS'image_06678'
p910
aS'image_06679'
p911
aS'image_06680'
p912
aS'image_06681'
p913
aS'image_06682'
p914
aS'image_06683'
p915
aS'image_06684'
p916
aS'image_06685'
p917
aS'image_06686'
p918
aS'image_06687'
p919
aS'image_06688'
p920
aS'image_06689'
p921
aS'image_06690'
p922
aS'image_06691'
p923
aS'image_06692'
p924
aS'image_03828'
p925
aS'image_03829'
p926
aS'image_03830'
p927
aS'image_03831'
p928
aS'image_03832'
p929
aS'image_03833'
p930
aS'image_03834'
p931
aS'image_03835'
p932
aS'image_03836'
p933
aS'image_03837'
p934
aS'image_03838'
p935
aS'image_03839'
p936
aS'image_03840'
p937
aS'image_03841'
p938
aS'image_03842'
p939
aS'image_03843'
p940
aS'image_03844'
p941
aS'image_03845'
p942
aS'image_03846'
p943
aS'image_03847'
p944
aS'image_03848'
p945
aS'image_03875'
p946
aS'image_03876'
p947
aS'image_03877'
p948
aS'image_03878'
p949
aS'image_03879'
p950
aS'image_03880'
p951
aS'image_03881'
p952
aS'image_03882'
p953
aS'image_03883'
p954
aS'image_03884'
p955
aS'image_03885'
p956
aS'image_03886'
p957
aS'image_03887'
p958
aS'image_03888'
p959
aS'image_03889'
p960
aS'image_03890'
p961
aS'image_03891'
p962
aS'image_03892'
p963
aS'image_03893'
p964
aS'image_03894'
p965
aS'image_03850'
p966
aS'image_03851'
p967
aS'image_03852'
p968
aS'image_03853'
p969
aS'image_03854'
p970
aS'image_03855'
p971
aS'image_03856'
p972
aS'image_03857'
p973
aS'image_03858'
p974
aS'image_03859'
p975
aS'image_03860'
p976
aS'image_03861'
p977
aS'image_03862'
p978
aS'image_03863'
p979
aS'image_03864'
p980
aS'image_03865'
p981
aS'image_03866'
p982
aS'image_03867'
p983
aS'image_03868'
p984
aS'image_03869'
p985
aS'image_03870'
p986
aS'image_03871'
p987
aS'image_03872'
p988
aS'image_03873'
p989
aS'image_03896'
p990
aS'image_03897'
p991
aS'image_03898'
p992
aS'image_03899'
p993
aS'image_03900'
p994
aS'image_03901'
p995
aS'image_03902'
p996
aS'image_03903'
p997
aS'image_03904'
p998
aS'image_03905'
p999
aS'image_03906'
p1000
aS'image_03907'
p1001
aS'image_03908'
p1002
aS'image_03909'
p1003
aS'image_03910'
p1004
aS'image_03911'
p1005
aS'image_03912'
p1006
aS'image_03849'
p1007
aS'image_03874'
p1008
aS'image_03895'
p1009
aS'image_04265'
p1010
aS'image_04290'
p1011
aS'image_04244'
p1012
aS'image_04245'
p1013
aS'image_04246'
p1014
aS'image_04247'
p1015
aS'image_04248'
p1016
aS'image_04249'
p1017
aS'image_04250'
p1018
aS'image_04251'
p1019
aS'image_04252'
p1020
aS'image_04253'
p1021
aS'image_04254'
p1022
aS'image_04255'
p1023
aS'image_04256'
p1024
aS'image_04257'
p1025
aS'image_04258'
p1026
aS'image_04259'
p1027
aS'image_04260'
p1028
aS'image_04261'
p1029
aS'image_04262'
p1030
aS'image_04263'
p1031
aS'image_04264'
p1032
aS'image_04291'
p1033
aS'image_04292'
p1034
aS'image_04293'
p1035
aS'image_04294'
p1036
aS'image_04295'
p1037
aS'image_04296'
p1038
aS'image_04297'
p1039
aS'image_04298'
p1040
aS'image_04299'
p1041
aS'image_04300'
p1042
aS'image_04301'
p1043
aS'image_04302'
p1044
aS'image_04303'
p1045
aS'image_04304'
p1046
aS'image_04305'
p1047
aS'image_04306'
p1048
aS'image_04307'
p1049
aS'image_04308'
p1050
aS'image_04309'
p1051
aS'image_04310'
p1052
aS'image_04311'
p1053
aS'image_04312'
p1054
aS'image_04313'
p1055
aS'image_04314'
p1056
aS'image_04315'
p1057
aS'image_04316'
p1058
aS'image_04317'
p1059
aS'image_04318'
p1060
aS'image_04319'
p1061
aS'image_04320'
p1062
aS'image_04321'
p1063
aS'image_04322'
p1064
aS'image_04323'
p1065
aS'image_04324'
p1066
aS'image_04325'
p1067
aS'image_04266'
p1068
aS'image_04267'
p1069
aS'image_04268'
p1070
aS'image_04269'
p1071
aS'image_04270'
p1072
aS'image_04271'
p1073
aS'image_04272'
p1074
aS'image_04273'
p1075
aS'image_04274'
p1076
aS'image_04275'
p1077
aS'image_04276'
p1078
aS'image_04277'
p1079
aS'image_04278'
p1080
aS'image_04279'
p1081
aS'image_04280'
p1082
aS'image_04281'
p1083
aS'image_04282'
p1084
aS'image_04283'
p1085
aS'image_04284'
p1086
aS'image_04285'
p1087
aS'image_04286'
p1088
aS'image_04287'
p1089
aS'image_04288'
p1090
aS'image_04289'
p1091
aS'image_06173'
p1092
aS'image_06149'
p1093
aS'image_06150'
p1094
aS'image_06151'
p1095
aS'image_06152'
p1096
aS'image_06153'
p1097
aS'image_06154'
p1098
aS'image_06155'
p1099
aS'image_06156'
p1100
aS'image_06157'
p1101
aS'image_06158'
p1102
aS'image_06159'
p1103
aS'image_06160'
p1104
aS'image_06161'
p1105
aS'image_06162'
p1106
aS'image_06163'
p1107
aS'image_06164'
p1108
aS'image_06165'
p1109
aS'image_06166'
p1110
aS'image_06167'
p1111
aS'image_06168'
p1112
aS'image_06169'
p1113
aS'image_06170'
p1114
aS'image_06171'
p1115
aS'image_06172'
p1116
aS'image_06174'
p1117
aS'image_06175'
p1118
aS'image_06176'
p1119
aS'image_06177'
p1120
aS'image_06178'
p1121
aS'image_06179'
p1122
aS'image_06180'
p1123
aS'image_06181'
p1124
aS'image_06182'
p1125
aS'image_06183'
p1126
aS'image_06184'
p1127
aS'image_06185'
p1128
aS'image_06186'
p1129
aS'image_06187'
p1130
aS'image_06188'
p1131
aS'image_06189'
p1132
aS'image_06190'
p1133
aS'image_06191'
p1134
aS'image_06192'
p1135
aS'image_06193'
p1136
aS'image_06194'
p1137
aS'image_06195'
p1138
aS'image_06196'
p1139
aS'image_06197'
p1140
aS'image_04931'
p1141
aS'image_04897'
p1142
aS'image_04898'
p1143
aS'image_04899'
p1144
aS'image_04900'
p1145
aS'image_04901'
p1146
aS'image_04902'
p1147
aS'image_04903'
p1148
aS'image_04904'
p1149
aS'image_04905'
p1150
aS'image_04906'
p1151
aS'image_04907'
p1152
aS'image_04908'
p1153
aS'image_04909'
p1154
aS'image_04910'
p1155
aS'image_04911'
p1156
aS'image_04912'
p1157
aS'image_04913'
p1158
aS'image_04914'
p1159
aS'image_04915'
p1160
aS'image_04916'
p1161
aS'image_04917'
p1162
aS'image_04918'
p1163
aS'image_04919'
p1164
aS'image_04920'
p1165
aS'image_04921'
p1166
aS'image_04922'
p1167
aS'image_04923'
p1168
aS'image_04924'
p1169
aS'image_04925'
p1170
aS'image_04926'
p1171
aS'image_04927'
p1172
aS'image_04928'
p1173
aS'image_04929'
p1174
aS'image_04930'
p1175
aS'image_04932'
p1176
aS'image_04933'
p1177
aS'image_04934'
p1178
aS'image_04935'
p1179
aS'image_04936'
p1180
aS'image_04937'
p1181
aS'image_04938'
p1182
aS'image_04939'
p1183
aS'image_04940'
p1184
aS'image_04941'
p1185
aS'image_04942'
p1186
aS'image_04943'
p1187
aS'image_04944'
p1188
aS'image_04945'
p1189
aS'image_04946'
p1190
aS'image_04947'
p1191
aS'image_04948'
p1192
aS'image_04949'
p1193
aS'image_04950'
p1194
aS'image_04951'
p1195
aS'image_04952'
p1196
aS'image_06794'
p1197
aS'image_06774'
p1198
aS'image_06775'
p1199
aS'image_06776'
p1200
aS'image_06777'
p1201
aS'image_06778'
p1202
aS'image_06779'
p1203
aS'image_06780'
p1204
aS'image_06781'
p1205
aS'image_06782'
p1206
aS'image_06783'
p1207
aS'image_06784'
p1208
aS'image_06785'
p1209
aS'image_06786'
p1210
aS'image_06787'
p1211
aS'image_06788'
p1212
aS'image_06789'
p1213
aS'image_06790'
p1214
aS'image_06791'
p1215
aS'image_06792'
p1216
aS'image_06793'
p1217
aS'image_06795'
p1218
aS'image_06796'
p1219
aS'image_06797'
p1220
aS'image_06798'
p1221
aS'image_06799'
p1222
aS'image_06800'
p1223
aS'image_06801'
p1224
aS'image_06802'
p1225
aS'image_06803'
p1226
aS'image_06804'
p1227
aS'image_06805'
p1228
aS'image_06806'
p1229
aS'image_06807'
p1230
aS'image_06808'
p1231
aS'image_06809'
p1232
aS'image_06810'
p1233
aS'image_06811'
p1234
aS'image_06812'
p1235
aS'image_06813'
p1236
aS'image_05364'
p1237
aS'image_05340'
p1238
aS'image_05341'
p1239
aS'image_05342'
p1240
aS'image_05343'
p1241
aS'image_05344'
p1242
aS'image_05345'
p1243
aS'image_05346'
p1244
aS'image_05347'
p1245
aS'image_05348'
p1246
aS'image_05349'
p1247
aS'image_05350'
p1248
aS'image_05351'
p1249
aS'image_05352'
p1250
aS'image_05353'
p1251
aS'image_05354'
p1252
aS'image_05355'
p1253
aS'image_05356'
p1254
aS'image_05357'
p1255
aS'image_05358'
p1256
aS'image_05359'
p1257
aS'image_05360'
p1258
aS'image_05361'
p1259
aS'image_05362'
p1260
aS'image_05363'
p1261
aS'image_05365'
p1262
aS'image_05366'
p1263
aS'image_05367'
p1264
aS'image_05368'
p1265
aS'image_05369'
p1266
aS'image_05370'
p1267
aS'image_05371'
p1268
aS'image_05372'
p1269
aS'image_05373'
p1270
aS'image_05374'
p1271
aS'image_05375'
p1272
aS'image_05376'
p1273
aS'image_05377'
p1274
aS'image_05378'
p1275
aS'image_05379'
p1276
aS'image_05380'
p1277
aS'image_05381'
p1278
aS'image_05382'
p1279
aS'image_05383'
p1280
aS'image_05384'
p1281
aS'image_05385'
p1282
aS'image_05386'
p1283
aS'image_05387'
p1284
aS'image_05388'
p1285
aS'image_05389'
p1286
aS'image_05390'
p1287
aS'image_05391'
p1288
aS'image_05392'
p1289
aS'image_05393'
p1290
aS'image_05394'
p1291
aS'image_05395'
p1292
aS'image_05396'
p1293
aS'image_05397'
p1294
aS'image_05398'
p1295
aS'image_03369'
p1296
aS'image_03370'
p1297
aS'image_03371'
p1298
aS'image_03372'
p1299
aS'image_03373'
p1300
aS'image_03374'
p1301
aS'image_03375'
p1302
aS'image_03376'
p1303
aS'image_03377'
p1304
aS'image_03378'
p1305
aS'image_03379'
p1306
aS'image_03380'
p1307
aS'image_03381'
p1308
aS'image_03382'
p1309
aS'image_03383'
p1310
aS'image_03384'
p1311
aS'image_03385'
p1312
aS'image_03386'
p1313
aS'image_03387'
p1314
aS'image_03410'
p1315
aS'image_03411'
p1316
aS'image_03412'
p1317
aS'image_03413'
p1318
aS'image_03414'
p1319
aS'image_03415'
p1320
aS'image_03416'
p1321
aS'image_03417'
p1322
aS'image_03418'
p1323
aS'image_03419'
p1324
aS'image_03420'
p1325
aS'image_03421'
p1326
aS'image_03422'
p1327
aS'image_03423'
p1328
aS'image_03424'
p1329
aS'image_03425'
p1330
aS'image_03426'
p1331
aS'image_03427'
p1332
aS'image_03428'
p1333
aS'image_03429'
p1334
aS'image_03430'
p1335
aS'image_03432'
p1336
aS'image_03433'
p1337
aS'image_03434'
p1338
aS'image_03435'
p1339
aS'image_03436'
p1340
aS'image_03437'
p1341
aS'image_03438'
p1342
aS'image_03439'
p1343
aS'image_03440'
p1344
aS'image_03441'
p1345
aS'image_03442'
p1346
aS'image_03443'
p1347
aS'image_03444'
p1348
aS'image_03445'
p1349
aS'image_03446'
p1350
aS'image_03447'
p1351
aS'image_03448'
p1352
aS'image_03449'
p1353
aS'image_03450'
p1354
aS'image_03451'
p1355
aS'image_03452'
p1356
aS'image_03453'
p1357
aS'image_03454'
p1358
aS'image_03455'
p1359
aS'image_03456'
p1360
aS'image_03457'
p1361
aS'image_03458'
p1362
aS'image_03459'
p1363
aS'image_03389'
p1364
aS'image_03390'
p1365
aS'image_03391'
p1366
aS'image_03392'
p1367
aS'image_03393'
p1368
aS'image_03394'
p1369
aS'image_03395'
p1370
aS'image_03396'
p1371
aS'image_03397'
p1372
aS'image_03398'
p1373
aS'image_03399'
p1374
aS'image_03400'
p1375
aS'image_03401'
p1376
aS'image_03402'
p1377
aS'image_03403'
p1378
aS'image_03404'
p1379
aS'image_03405'
p1380
aS'image_03406'
p1381
aS'image_03407'
p1382
aS'image_03408'
p1383
aS'image_03388'
p1384
aS'image_03409'
p1385
aS'image_03431'
p1386
aS'image_06832'
p1387
aS'image_06814'
p1388
aS'image_06815'
p1389
aS'image_06816'
p1390
aS'image_06817'
p1391
aS'image_06818'
p1392
aS'image_06819'
p1393
aS'image_06820'
p1394
aS'image_06821'
p1395
aS'image_06822'
p1396
aS'image_06823'
p1397
aS'image_06824'
p1398
aS'image_06825'
p1399
aS'image_06826'
p1400
aS'image_06827'
p1401
aS'image_06828'
p1402
aS'image_06829'
p1403
aS'image_06830'
p1404
aS'image_06831'
p1405
aS'image_06833'
p1406
aS'image_06834'
p1407
aS'image_06835'
p1408
aS'image_06836'
p1409
aS'image_06837'
p1410
aS'image_06838'
p1411
aS'image_06839'
p1412
aS'image_06840'
p1413
aS'image_06841'
p1414
aS'image_06842'
p1415
aS'image_06843'
p1416
aS'image_06844'
p1417
aS'image_06845'
p1418
aS'image_06846'
p1419
aS'image_06847'
p1420
aS'image_06848'
p1421
aS'image_06849'
p1422
aS'image_08048'
p1423
aS'image_08049'
p1424
aS'image_08050'
p1425
aS'image_08051'
p1426
aS'image_08052'
p1427
aS'image_08053'
p1428
aS'image_06590'
p1429
aS'image_06571'
p1430
aS'image_06572'
p1431
aS'image_06573'
p1432
aS'image_06574'
p1433
aS'image_06575'
p1434
aS'image_06576'
p1435
aS'image_06577'
p1436
aS'image_06578'
p1437
aS'image_06579'
p1438
aS'image_06580'
p1439
aS'image_06581'
p1440
aS'image_06582'
p1441
aS'image_06583'
p1442
aS'image_06584'
p1443
aS'image_06585'
p1444
aS'image_06586'
p1445
aS'image_06587'
p1446
aS'image_06588'
p1447
aS'image_06589'
p1448
aS'image_06591'
p1449
aS'image_06592'
p1450
aS'image_06593'
p1451
aS'image_06594'
p1452
aS'image_06595'
p1453
aS'image_06596'
p1454
aS'image_06597'
p1455
aS'image_06598'
p1456
aS'image_06599'
p1457
aS'image_06600'
p1458
aS'image_06601'
p1459
aS'image_06602'
p1460
aS'image_06603'
p1461
aS'image_06604'
p1462
aS'image_06605'
p1463
aS'image_06606'
p1464
aS'image_06607'
p1465
aS'image_06608'
p1466
aS'image_06609'
p1467
aS'image_06610'
p1468
aS'image_06611'
p1469
aS'image_06508'
p1470
aS'image_06487'
p1471
aS'image_06488'
p1472
aS'image_06489'
p1473
aS'image_06490'
p1474
aS'image_06491'
p1475
aS'image_06492'
p1476
aS'image_06493'
p1477
aS'image_06494'
p1478
aS'image_06495'
p1479
aS'image_06496'
p1480
aS'image_06497'
p1481
aS'image_06498'
p1482
aS'image_06499'
p1483
aS'image_06500'
p1484
aS'image_06501'
p1485
aS'image_06502'
p1486
aS'image_06503'
p1487
aS'image_06504'
p1488
aS'image_06505'
p1489
aS'image_06506'
p1490
aS'image_06507'
p1491
aS'image_06509'
p1492
aS'image_06510'
p1493
aS'image_06511'
p1494
aS'image_06512'
p1495
aS'image_06513'
p1496
aS'image_06514'
p1497
aS'image_06515'
p1498
aS'image_06516'
p1499
aS'image_06517'
p1500
aS'image_06518'
p1501
aS'image_06519'
p1502
aS'image_06520'
p1503
aS'image_06521'
p1504
aS'image_06522'
p1505
aS'image_06523'
p1506
aS'image_06524'
p1507
aS'image_06525'
p1508
aS'image_06526'
p1509
aS'image_06527'
p1510
aS'image_06871'
p1511
aS'image_06850'
p1512
aS'image_06851'
p1513
aS'image_06852'
p1514
aS'image_06853'
p1515
aS'image_06854'
p1516
aS'image_06855'
p1517
aS'image_06856'
p1518
aS'image_06857'
p1519
aS'image_06858'
p1520
aS'image_06859'
p1521
aS'image_06860'
p1522
aS'image_06861'
p1523
aS'image_06862'
p1524
aS'image_06863'
p1525
aS'image_06864'
p1526
aS'image_06865'
p1527
aS'image_06866'
p1528
aS'image_06867'
p1529
aS'image_06868'
p1530
aS'image_06869'
p1531
aS'image_06870'
p1532
aS'image_06872'
p1533
aS'image_06873'
p1534
aS'image_06874'
p1535
aS'image_06875'
p1536
aS'image_06876'
p1537
aS'image_06877'
p1538
aS'image_06878'
p1539
aS'image_06879'
p1540
aS'image_06880'
p1541
aS'image_06881'
p1542
aS'image_06882'
p1543
aS'image_06883'
p1544
aS'image_06884'
p1545
aS'image_06885'
p1546
aS'image_06886'
p1547
aS'image_06887'
p1548
aS'image_06888'
p1549
aS'image_06889'
p1550
aS'image_05241'
p1551
aS'image_05259'
p1552
aS'image_05212'
p1553
aS'image_05213'
p1554
aS'image_05214'
p1555
aS'image_05215'
p1556
aS'image_05216'
p1557
aS'image_05217'
p1558
aS'image_05218'
p1559
aS'image_05219'
p1560
aS'image_05220'
p1561
aS'image_05221'
p1562
aS'image_05222'
p1563
aS'image_05223'
p1564
aS'image_05224'
p1565
aS'image_05225'
p1566
aS'image_05226'
p1567
aS'image_05227'
p1568
aS'image_05228'
p1569
aS'image_05229'
p1570
aS'image_05230'
p1571
aS'image_05231'
p1572
aS'image_05232'
p1573
aS'image_05233'
p1574
aS'image_05234'
p1575
aS'image_05235'
p1576
aS'image_05236'
p1577
aS'image_05237'
p1578
aS'image_05238'
p1579
aS'image_05239'
p1580
aS'image_05240'
p1581
aS'image_05242'
p1582
aS'image_05243'
p1583
aS'image_05244'
p1584
aS'image_05245'
p1585
aS'image_05246'
p1586
aS'image_05247'
p1587
aS'image_05248'
p1588
aS'image_05249'
p1589
aS'image_05250'
p1590
aS'image_05251'
p1591
aS'image_05252'
p1592
aS'image_05253'
p1593
aS'image_05254'
p1594
aS'image_05255'
p1595
aS'image_05256'
p1596
aS'image_05257'
p1597
aS'image_05258'
p1598
aS'image_05260'
p1599
aS'image_05261'
p1600
aS'image_05262'
p1601
aS'image_05263'
p1602
aS'image_05264'
p1603
aS'image_05265'
p1604
aS'image_05266'
p1605
aS'image_05267'
p1606
aS'image_05268'
p1607
aS'image_05269'
p1608
aS'image_05270'
p1609
aS'image_05271'
p1610
aS'image_05272'
p1611
aS'image_05273'
p1612
aS'image_05274'
p1613
aS'image_05275'
p1614
aS'image_05276'
p1615
aS'image_05277'
p1616
aS'image_04081'
p1617
aS'image_04082'
p1618
aS'image_04083'
p1619
aS'image_04084'
p1620
aS'image_04085'
p1621
aS'image_04086'
p1622
aS'image_04087'
p1623
aS'image_04088'
p1624
aS'image_04089'
p1625
aS'image_04090'
p1626
aS'image_04091'
p1627
aS'image_04092'
p1628
aS'image_04093'
p1629
aS'image_04094'
p1630
aS'image_04095'
p1631
aS'image_04096'
p1632
aS'image_04097'
p1633
aS'image_04119'
p1634
aS'image_04120'
p1635
aS'image_04121'
p1636
aS'image_04122'
p1637
aS'image_04123'
p1638
aS'image_04124'
p1639
aS'image_04125'
p1640
aS'image_04126'
p1641
aS'image_04127'
p1642
aS'image_04128'
p1643
aS'image_04129'
p1644
aS'image_04130'
p1645
aS'image_04131'
p1646
aS'image_04132'
p1647
aS'image_04133'
p1648
aS'image_04134'
p1649
aS'image_04135'
p1650
aS'image_04136'
p1651
aS'image_04137'
p1652
aS'image_04139'
p1653
aS'image_04140'
p1654
aS'image_04141'
p1655
aS'image_04142'
p1656
aS'image_04143'
p1657
aS'image_04144'
p1658
aS'image_04145'
p1659
aS'image_04146'
p1660
aS'image_04147'
p1661
aS'image_04148'
p1662
aS'image_04149'
p1663
aS'image_04150'
p1664
aS'image_04151'
p1665
aS'image_04152'
p1666
aS'image_04153'
p1667
aS'image_04154'
p1668
aS'image_04155'
p1669
aS'image_04156'
p1670
aS'image_04157'
p1671
aS'image_04158'
p1672
aS'image_04099'
p1673
aS'image_04100'
p1674
aS'image_04101'
p1675
aS'image_04102'
p1676
aS'image_04103'
p1677
aS'image_04104'
p1678
aS'image_04105'
p1679
aS'image_04106'
p1680
aS'image_04107'
p1681
aS'image_04108'
p1682
aS'image_04109'
p1683
aS'image_04110'
p1684
aS'image_04111'
p1685
aS'image_04112'
p1686
aS'image_04113'
p1687
aS'image_04114'
p1688
aS'image_04115'
p1689
aS'image_04116'
p1690
aS'image_04117'
p1691
aS'image_04098'
p1692
aS'image_04118'
p1693
aS'image_04138'
p1694
aS'image_03460'
p1695
aS'image_03461'
p1696
aS'image_03462'
p1697
aS'image_03463'
p1698
aS'image_03464'
p1699
aS'image_03465'
p1700
aS'image_03466'
p1701
aS'image_03467'
p1702
aS'image_03468'
p1703
aS'image_03469'
p1704
aS'image_03470'
p1705
aS'image_03471'
p1706
aS'image_03472'
p1707
aS'image_03473'
p1708
aS'image_03474'
p1709
aS'image_03475'
p1710
aS'image_03476'
p1711
aS'image_03477'
p1712
aS'image_03499'
p1713
aS'image_03500'
p1714
aS'image_03501'
p1715
aS'image_03502'
p1716
aS'image_03503'
p1717
aS'image_03504'
p1718
aS'image_03505'
p1719
aS'image_03506'
p1720
aS'image_03507'
p1721
aS'image_03508'
p1722
aS'image_03509'
p1723
aS'image_03510'
p1724
aS'image_03511'
p1725
aS'image_03512'
p1726
aS'image_03513'
p1727
aS'image_03514'
p1728
aS'image_03515'
p1729
aS'image_03516'
p1730
aS'image_03517'
p1731
aS'image_03518'
p1732
aS'image_03520'
p1733
aS'image_03521'
p1734
aS'image_03522'
p1735
aS'image_03523'
p1736
aS'image_03524'
p1737
aS'image_03525'
p1738
aS'image_03526'
p1739
aS'image_03527'
p1740
aS'image_03528'
p1741
aS'image_03529'
p1742
aS'image_03530'
p1743
aS'image_03531'
p1744
aS'image_03532'
p1745
aS'image_03533'
p1746
aS'image_03534'
p1747
aS'image_03535'
p1748
aS'image_03536'
p1749
aS'image_03537'
p1750
aS'image_03538'
p1751
aS'image_03539'
p1752
aS'image_03540'
p1753
aS'image_03541'
p1754
aS'image_03542'
p1755
aS'image_03543'
p1756
aS'image_03544'
p1757
aS'image_03479'
p1758
aS'image_03480'
p1759
aS'image_03481'
p1760
aS'image_03482'
p1761
aS'image_03483'
p1762
aS'image_03484'
p1763
aS'image_03485'
p1764
aS'image_03486'
p1765
aS'image_03487'
p1766
aS'image_03488'
p1767
aS'image_03489'
p1768
aS'image_03490'
p1769
aS'image_03491'
p1770
aS'image_03492'
p1771
aS'image_03493'
p1772
aS'image_03494'
p1773
aS'image_03495'
p1774
aS'image_03496'
p1775
aS'image_03497'
p1776
aS'image_03478'
p1777
aS'image_03498'
p1778
aS'image_03519'
p1779
aS'image_06914'
p1780
aS'image_06890'
p1781
aS'image_06891'
p1782
aS'image_06892'
p1783
aS'image_06893'
p1784
aS'image_06894'
p1785
aS'image_06895'
p1786
aS'image_06896'
p1787
aS'image_06897'
p1788
aS'image_06898'
p1789
aS'image_06899'
p1790
aS'image_06900'
p1791
aS'image_06901'
p1792
aS'image_06902'
p1793
aS'image_06903'
p1794
aS'image_06904'
p1795
aS'image_06905'
p1796
aS'image_06906'
p1797
aS'image_06907'
p1798
aS'image_06908'
p1799
aS'image_06909'
p1800
aS'image_06910'
p1801
aS'image_06911'
p1802
aS'image_06912'
p1803
aS'image_06913'
p1804
aS'image_06915'
p1805
aS'image_06916'
p1806
aS'image_06917'
p1807
aS'image_06918'
p1808
aS'image_06919'
p1809
aS'image_06920'
p1810
aS'image_06921'
p1811
aS'image_06922'
p1812
aS'image_06923'
p1813
aS'image_06924'
p1814
aS'image_06925'
p1815
aS'image_06926'
p1816
aS'image_06927'
p1817
aS'image_06928'
p1818
aS'image_08065'
p1819
aS'image_08066'
p1820
aS'image_08067'
p1821
aS'image_08068'
p1822
aS'image_08069'
p1823
aS'image_08070'
p1824
aS'image_08071'
p1825
aS'image_08072'
p1826
aS'image_08073'
p1827
aS'image_08074'
p1828
aS'image_08075'
p1829
aS'image_08076'
p1830
aS'image_08077'
p1831
aS'image_05605'
p1832
aS'image_05584'
p1833
aS'image_05585'
p1834
aS'image_05586'
p1835
aS'image_05587'
p1836
aS'image_05588'
p1837
aS'image_05589'
p1838
aS'image_05590'
p1839
aS'image_05591'
p1840
aS'image_05592'
p1841
aS'image_05593'
p1842
aS'image_05594'
p1843
aS'image_05595'
p1844
aS'image_05596'
p1845
aS'image_05597'
p1846
aS'image_05598'
p1847
aS'image_05599'
p1848
aS'image_05600'
p1849
aS'image_05601'
p1850
aS'image_05602'
p1851
aS'image_05603'
p1852
aS'image_05604'
p1853
aS'image_05606'
p1854
aS'image_05607'
p1855
aS'image_05608'
p1856
aS'image_05609'
p1857
aS'image_05610'
p1858
aS'image_05611'
p1859
aS'image_05612'
p1860
aS'image_05613'
p1861
aS'image_05614'
p1862
aS'image_05615'
p1863
aS'image_05616'
p1864
aS'image_05617'
p1865
aS'image_05618'
p1866
aS'image_05619'
p1867
aS'image_05620'
p1868
aS'image_05621'
p1869
aS'image_05622'
p1870
aS'image_05623'
p1871
aS'image_05624'
p1872
aS'image_05625'
p1873
aS'image_05626'
p1874
aS'image_05627'
p1875
aS'image_05628'
p1876
aS'image_06464'
p1877
aS'image_06441'
p1878
aS'image_06442'
p1879
aS'image_06443'
p1880
aS'image_06444'
p1881
aS'image_06445'
p1882
aS'image_06446'
p1883
aS'image_06447'
p1884
aS'image_06448'
p1885
aS'image_06449'
p1886
aS'image_06450'
p1887
aS'image_06451'
p1888
aS'image_06452'
p1889
aS'image_06453'
p1890
aS'image_06454'
p1891
aS'image_06455'
p1892
aS'image_06456'
p1893
aS'image_06457'
p1894
aS'image_06458'
p1895
aS'image_06459'
p1896
aS'image_06460'
p1897
aS'image_06461'
p1898
aS'image_06462'
p1899
aS'image_06463'
p1900
aS'image_06465'
p1901
aS'image_06466'
p1902
aS'image_06467'
p1903
aS'image_06468'
p1904
aS'image_06469'
p1905
aS'image_06470'
p1906
aS'image_06471'
p1907
aS'image_06472'
p1908
aS'image_06473'
p1909
aS'image_06474'
p1910
aS'image_06475'
p1911
aS'image_06476'
p1912
aS'image_06477'
p1913
aS'image_06478'
p1914
aS'image_06479'
p1915
aS'image_06480'
p1916
aS'image_06481'
p1917
aS'image_06482'
p1918
aS'image_06483'
p1919
aS'image_06484'
p1920
aS'image_06485'
p1921
aS'image_06486'
p1922
aS'image_06988'
p1923
aS'image_06969'
p1924
aS'image_06970'
p1925
aS'image_06971'
p1926
aS'image_06972'
p1927
aS'image_06973'
p1928
aS'image_06974'
p1929
aS'image_06975'
p1930
aS'image_06976'
p1931
aS'image_06977'
p1932
aS'image_06978'
p1933
aS'image_06979'
p1934
aS'image_06980'
p1935
aS'image_06981'
p1936
aS'image_06982'
p1937
aS'image_06983'
p1938
aS'image_06984'
p1939
aS'image_06985'
p1940
aS'image_06986'
p1941
aS'image_06987'
p1942
aS'image_06989'
p1943
aS'image_06990'
p1944
aS'image_06991'
p1945
aS'image_06992'
p1946
aS'image_06993'
p1947
aS'image_06994'
p1948
aS'image_06995'
p1949
aS'image_06996'
p1950
aS'image_06997'
p1951
aS'image_06998'
p1952
aS'image_06999'
p1953
aS'image_07000'
p1954
aS'image_07001'
p1955
aS'image_07002'
p1956
aS'image_07003'
p1957
aS'image_07004'
p1958
aS'image_07005'
p1959
aS'image_07006'
p1960
aS'image_08084'
p1961
aS'image_08085'
p1962
aS'image_08086'
p1963
aS'image_08087'
p1964
aS'image_08088'
p1965
aS'image_04359'
p1966
aS'image_04380'
p1967
aS'image_04326'
p1968
aS'image_04327'
p1969
aS'image_04328'
p1970
aS'image_04329'
p1971
aS'image_04330'
p1972
aS'image_04331'
p1973
aS'image_04332'
p1974
aS'image_04333'
p1975
aS'image_04334'
p1976
aS'image_04335'
p1977
aS'image_04336'
p1978
aS'image_04337'
p1979
aS'image_04338'
p1980
aS'image_04339'
p1981
aS'image_04340'
p1982
aS'image_04341'
p1983
aS'image_04342'
p1984
aS'image_04343'
p1985
aS'image_04344'
p1986
aS'image_04345'
p1987
aS'image_04346'
p1988
aS'image_04347'
p1989
aS'image_04348'
p1990
aS'image_04349'
p1991
aS'image_04350'
p1992
aS'image_04351'
p1993
aS'image_04352'
p1994
aS'image_04353'
p1995
aS'image_04354'
p1996
aS'image_04355'
p1997
aS'image_04356'
p1998
aS'image_04357'
p1999
aS'image_04358'
p2000
aS'image_04360'
p2001
aS'image_04361'
p2002
aS'image_04362'
p2003
aS'image_04363'
p2004
aS'image_04364'
p2005
aS'image_04365'
p2006
aS'image_04366'
p2007
aS'image_04367'
p2008
aS'image_04368'
p2009
aS'image_04369'
p2010
aS'image_04370'
p2011
aS'image_04371'
p2012
aS'image_04372'
p2013
aS'image_04373'
p2014
aS'image_04374'
p2015
aS'image_04375'
p2016
aS'image_04376'
p2017
aS'image_04377'
p2018
aS'image_04378'
p2019
aS'image_04379'
p2020
aS'image_04381'
p2021
aS'image_04382'
p2022
aS'image_04383'
p2023
aS'image_04384'
p2024
aS'image_04385'
p2025
aS'image_04386'
p2026
aS'image_04387'
p2027
aS'image_04388'
p2028
aS'image_04389'
p2029
aS'image_04390'
p2030
aS'image_04391'
p2031
aS'image_04392'
p2032
aS'image_04393'
p2033
aS'image_04394'
p2034
aS'image_04395'
p2035
aS'image_04396'
p2036
aS'image_04397'
p2037
aS'image_04398'
p2038
aS'image_04399'
p2039
aS'image_04400'
p2040
aS'image_03734'
p2041
aS'image_03735'
p2042
aS'image_03736'
p2043
aS'image_03737'
p2044
aS'image_03738'
p2045
aS'image_03739'
p2046
aS'image_03740'
p2047
aS'image_03741'
p2048
aS'image_03742'
p2049
aS'image_03743'
p2050
aS'image_03744'
p2051
aS'image_03745'
p2052
aS'image_03746'
p2053
aS'image_03747'
p2054
aS'image_03748'
p2055
aS'image_03749'
p2056
aS'image_03750'
p2057
aS'image_03751'
p2058
aS'image_03752'
p2059
aS'image_03753'
p2060
aS'image_03754'
p2061
aS'image_03755'
p2062
aS'image_03756'
p2063
aS'image_03757'
p2064
aS'image_03758'
p2065
aS'image_03759'
p2066
aS'image_03760'
p2067
aS'image_03761'
p2068
aS'image_03762'
p2069
aS'image_03763'
p2070
aS'image_03764'
p2071
aS'image_03765'
p2072
aS'image_03766'
p2073
aS'image_03767'
p2074
aS'image_03799'
p2075
aS'image_03800'
p2076
aS'image_03801'
p2077
aS'image_03802'
p2078
aS'image_03803'
p2079
aS'image_03804'
p2080
aS'image_03805'
p2081
aS'image_03806'
p2082
aS'image_03807'
p2083
aS'image_03808'
p2084
aS'image_03809'
p2085
aS'image_03810'
p2086
aS'image_03811'
p2087
aS'image_03812'
p2088
aS'image_03813'
p2089
aS'image_03814'
p2090
aS'image_03815'
p2091
aS'image_03816'
p2092
aS'image_03817'
p2093
aS'image_03818'
p2094
aS'image_03769'
p2095
aS'image_03770'
p2096
aS'image_03771'
p2097
aS'image_03772'
p2098
aS'image_03773'
p2099
aS'image_03774'
p2100
aS'image_03775'
p2101
aS'image_03776'
p2102
aS'image_03777'
p2103
aS'image_03778'
p2104
aS'image_03779'
p2105
aS'image_03780'
p2106
aS'image_03781'
p2107
aS'image_03782'
p2108
aS'image_03783'
p2109
aS'image_03784'
p2110
aS'image_03785'
p2111
aS'image_03786'
p2112
aS'image_03787'
p2113
aS'image_03788'
p2114
aS'image_03789'
p2115
aS'image_03790'
p2116
aS'image_03791'
p2117
aS'image_03792'
p2118
aS'image_03793'
p2119
aS'image_03794'
p2120
aS'image_03795'
p2121
aS'image_03796'
p2122
aS'image_03797'
p2123
aS'image_03820'
p2124
aS'image_03821'
p2125
aS'image_03822'
p2126
aS'image_03823'
p2127
aS'image_03824'
p2128
aS'image_03825'
p2129
aS'image_03826'
p2130
aS'image_03827'
p2131
aS'image_07285'
p2132
aS'image_07286'
p2133
aS'image_07287'
p2134
aS'image_07288'
p2135
aS'image_07289'
p2136
aS'image_07290'
p2137
aS'image_07291'
p2138
aS'image_07292'
p2139
aS'image_07293'
p2140
aS'image_07294'
p2141
aS'image_07295'
p2142
aS'image_07296'
p2143
aS'image_07297'
p2144
aS'image_07298'
p2145
aS'image_03768'
p2146
aS'image_03798'
p2147
aS'image_03819'
p2148
aS'image_05822'
p2149
aS'image_05793'
p2150
aS'image_05794'
p2151
aS'image_05795'
p2152
aS'image_05796'
p2153
aS'image_05797'
p2154
aS'image_05798'
p2155
aS'image_05799'
p2156
aS'image_05800'
p2157
aS'image_05801'
p2158
aS'image_05802'
p2159
aS'image_05803'
p2160
aS'image_05804'
p2161
aS'image_05805'
p2162
aS'image_05806'
p2163
aS'image_05807'
p2164
aS'image_05808'
p2165
aS'image_05809'
p2166
aS'image_05810'
p2167
aS'image_05811'
p2168
aS'image_05812'
p2169
aS'image_05813'
p2170
aS'image_05814'
p2171
aS'image_05815'
p2172
aS'image_05816'
p2173
aS'image_05817'
p2174
aS'image_05818'
p2175
aS'image_05819'
p2176
aS'image_05820'
p2177
aS'image_05821'
p2178
aS'image_05823'
p2179
aS'image_05824'
p2180
aS'image_05825'
p2181
aS'image_05826'
p2182
aS'image_05827'
p2183
aS'image_05828'
p2184
aS'image_05829'
p2185
aS'image_05830'
p2186
aS'image_05831'
p2187
aS'image_05832'
p2188
aS'image_05833'
p2189
aS'image_05834'
p2190
aS'image_05835'
p2191
aS'image_05836'
p2192
aS'image_05837'
p2193
aS'image_05838'
p2194
aS'image_05839'
p2195
aS'image_05840'
p2196
aS'image_05841'
p2197
aS'image_05842'
p2198
aS'image_05843'
p2199
aS'image_05844'
p2200
aS'image_05845'
p2201
aS'image_05846'
p2202
aS'image_05847'
p2203
aS'image_05848'
p2204
aS'image_07027'
p2205
aS'image_07007'
p2206
aS'image_07008'
p2207
aS'image_07009'
p2208
aS'image_07010'
p2209
aS'image_07011'
p2210
aS'image_07012'
p2211
aS'image_07013'
p2212
aS'image_07014'
p2213
aS'image_07015'
p2214
aS'image_07016'
p2215
aS'image_07017'
p2216
aS'image_07018'
p2217
aS'image_07019'
p2218
aS'image_07020'
p2219
aS'image_07021'
p2220
aS'image_07022'
p2221
aS'image_07023'
p2222
aS'image_07024'
p2223
aS'image_07025'
p2224
aS'image_07026'
p2225
aS'image_07028'
p2226
aS'image_07029'
p2227
aS'image_07030'
p2228
aS'image_07031'
p2229
aS'image_07032'
p2230
aS'image_07033'
p2231
aS'image_07034'
p2232
aS'image_07035'
p2233
aS'image_07036'
p2234
aS'image_07037'
p2235
aS'image_07038'
p2236
aS'image_07039'
p2237
aS'image_07040'
p2238
aS'image_07041'
p2239
aS'image_07042'
p2240
aS'image_07043'
p2241
aS'image_07044'
p2242
aS'image_07045'
p2243
aS'image_08080'
p2244
aS'image_08081'
p2245
aS'image_04590'
p2246
aS'image_04558'
p2247
aS'image_04559'
p2248
aS'image_04560'
p2249
aS'image_04561'
p2250
aS'image_04562'
p2251
aS'image_04563'
p2252
aS'image_04564'
p2253
aS'image_04565'
p2254
aS'image_04566'
p2255
aS'image_04567'
p2256
aS'image_04568'
p2257
aS'image_04569'
p2258
aS'image_04570'
p2259
aS'image_04571'
p2260
aS'image_04572'
p2261
aS'image_04573'
p2262
aS'image_04574'
p2263
aS'image_04575'
p2264
aS'image_04576'
p2265
aS'image_04577'
p2266
aS'image_04578'
p2267
aS'image_04579'
p2268
aS'image_04580'
p2269
aS'image_04581'
p2270
aS'image_04582'
p2271
aS'image_04583'
p2272
aS'image_04584'
p2273
aS'image_04585'
p2274
aS'image_04586'
p2275
aS'image_04587'
p2276
aS'image_04588'
p2277
aS'image_04589'
p2278
aS'image_04591'
p2279
aS'image_04592'
p2280
aS'image_04593'
p2281
aS'image_04594'
p2282
aS'image_04595'
p2283
aS'image_04596'
p2284
aS'image_04597'
p2285
aS'image_04598'
p2286
aS'image_04599'
p2287
aS'image_04600'
p2288
aS'image_04601'
p2289
aS'image_04602'
p2290
aS'image_04603'
p2291
aS'image_04604'
p2292
aS'image_04605'
p2293
aS'image_04606'
p2294
aS'image_04607'
p2295
aS'image_04608'
p2296
aS'image_04609'
p2297
aS'image_04610'
p2298
aS'image_04611'
p2299
aS'image_04612'
p2300
aS'image_04613'
p2301
aS'image_04614'
p2302
aS'image_04615'
p2303
aS'image_04616'
p2304
aS'image_04617'
p2305
aS'image_04618'
p2306
aS'image_04619'
p2307
aS'image_04620'
p2308
aS'image_04621'
p2309
aS'image_04622'
p2310
aS'image_04623'
p2311
aS'image_04624'
p2312
aS'image_02189'
p2313
aS'image_02190'
p2314
aS'image_02191'
p2315
aS'image_02192'
p2316
aS'image_02193'
p2317
aS'image_02194'
p2318
aS'image_02195'
p2319
aS'image_02196'
p2320
aS'image_02197'
p2321
aS'image_02198'
p2322
aS'image_02199'
p2323
aS'image_02200'
p2324
aS'image_02201'
p2325
aS'image_02202'
p2326
aS'image_02203'
p2327
aS'image_02204'
p2328
aS'image_02205'
p2329
aS'image_02206'
p2330
aS'image_02207'
p2331
aS'image_02208'
p2332
aS'image_02209'
p2333
aS'image_02210'
p2334
aS'image_02211'
p2335
aS'image_02212'
p2336
aS'image_02250'
p2337
aS'image_02251'
p2338
aS'image_02252'
p2339
aS'image_02253'
p2340
aS'image_02254'
p2341
aS'image_02255'
p2342
aS'image_02256'
p2343
aS'image_02257'
p2344
aS'image_02258'
p2345
aS'image_02259'
p2346
aS'image_02260'
p2347
aS'image_02261'
p2348
aS'image_02262'
p2349
aS'image_02263'
p2350
aS'image_02264'
p2351
aS'image_02265'
p2352
aS'image_02266'
p2353
aS'image_02267'
p2354
aS'image_02268'
p2355
aS'image_02269'
p2356
aS'image_02270'
p2357
aS'image_02271'
p2358
aS'image_02272'
p2359
aS'image_02273'
p2360
aS'image_02274'
p2361
aS'image_02275'
p2362
aS'image_02276'
p2363
aS'image_02277'
p2364
aS'image_02278'
p2365
aS'image_02279'
p2366
aS'image_02280'
p2367
aS'image_02281'
p2368
aS'image_02282'
p2369
aS'image_02284'
p2370
aS'image_02285'
p2371
aS'image_02286'
p2372
aS'image_02287'
p2373
aS'image_02288'
p2374
aS'image_02289'
p2375
aS'image_02290'
p2376
aS'image_02291'
p2377
aS'image_02292'
p2378
aS'image_02293'
p2379
aS'image_02294'
p2380
aS'image_02295'
p2381
aS'image_02296'
p2382
aS'image_02297'
p2383
aS'image_02298'
p2384
aS'image_02299'
p2385
aS'image_02300'
p2386
aS'image_02301'
p2387
aS'image_02302'
p2388
aS'image_02303'
p2389
aS'image_02304'
p2390
aS'image_02305'
p2391
aS'image_02306'
p2392
aS'image_02307'
p2393
aS'image_02308'
p2394
aS'image_02309'
p2395
aS'image_02310'
p2396
aS'image_02311'
p2397
aS'image_02312'
p2398
aS'image_02313'
p2399
aS'image_02314'
p2400
aS'image_02315'
p2401
aS'image_02214'
p2402
aS'image_02215'
p2403
aS'image_02216'
p2404
aS'image_02217'
p2405
aS'image_02218'
p2406
aS'image_02219'
p2407
aS'image_02220'
p2408
aS'image_02221'
p2409
aS'image_02222'
p2410
aS'image_02223'
p2411
aS'image_02224'
p2412
aS'image_02225'
p2413
aS'image_02226'
p2414
aS'image_02227'
p2415
aS'image_02228'
p2416
aS'image_02229'
p2417
aS'image_02230'
p2418
aS'image_02231'
p2419
aS'image_02232'
p2420
aS'image_02233'
p2421
aS'image_02234'
p2422
aS'image_02235'
p2423
aS'image_02236'
p2424
aS'image_02237'
p2425
aS'image_02238'
p2426
aS'image_02239'
p2427
aS'image_02240'
p2428
aS'image_02241'
p2429
aS'image_02242'
p2430
aS'image_02243'
p2431
aS'image_02244'
p2432
aS'image_02245'
p2433
aS'image_02246'
p2434
aS'image_02247'
p2435
aS'image_02248'
p2436
aS'image_02213'
p2437
aS'image_02249'
p2438
aS'image_02283'
p2439
aS'image_05714'
p2440
aS'image_05685'
p2441
aS'image_05686'
p2442
aS'image_05687'
p2443
aS'image_05688'
p2444
aS'image_05689'
p2445
aS'image_05690'
p2446
aS'image_05691'
p2447
aS'image_05692'
p2448
aS'image_05693'
p2449
aS'image_05694'
p2450
aS'image_05695'
p2451
aS'image_05696'
p2452
aS'image_05697'
p2453
aS'image_05698'
p2454
aS'image_05699'
p2455
aS'image_05700'
p2456
aS'image_05701'
p2457
aS'image_05702'
p2458
aS'image_05703'
p2459
aS'image_05704'
p2460
aS'image_05705'
p2461
aS'image_05706'
p2462
aS'image_05707'
p2463
aS'image_05708'
p2464
aS'image_05709'
p2465
aS'image_05710'
p2466
aS'image_05711'
p2467
aS'image_05712'
p2468
aS'image_05713'
p2469
aS'image_05715'
p2470
aS'image_05716'
p2471
aS'image_05717'
p2472
aS'image_05718'
p2473
aS'image_05719'
p2474
aS'image_05720'
p2475
aS'image_05721'
p2476
aS'image_05722'
p2477
aS'image_05723'
p2478
aS'image_05724'
p2479
aS'image_05725'
p2480
aS'image_05726'
p2481
aS'image_05727'
p2482
aS'image_05728'
p2483
aS'image_05729'
p2484
aS'image_05730'
p2485
aS'image_05731'
p2486
aS'image_05732'
p2487
aS'image_05733'
p2488
aS'image_05734'
p2489
aS'image_05735'
p2490
aS'image_05736'
p2491
aS'image_05737'
p2492
aS'image_05738'
p2493
aS'image_05739'
p2494
aS'image_05740'
p2495
aS'image_05741'
p2496
aS'image_05742'
p2497
aS'image_05743'
p2498
aS'image_02316'
p2499
aS'image_02317'
p2500
aS'image_02318'
p2501
aS'image_02319'
p2502
aS'image_02320'
p2503
aS'image_02321'
p2504
aS'image_02322'
p2505
aS'image_02323'
p2506
aS'image_02324'
p2507
aS'image_02325'
p2508
aS'image_02326'
p2509
aS'image_02327'
p2510
aS'image_02328'
p2511
aS'image_02329'
p2512
aS'image_02330'
p2513
aS'image_02331'
p2514
aS'image_02332'
p2515
aS'image_02333'
p2516
aS'image_02389'
p2517
aS'image_02390'
p2518
aS'image_02391'
p2519
aS'image_02392'
p2520
aS'image_02393'
p2521
aS'image_02394'
p2522
aS'image_02395'
p2523
aS'image_02396'
p2524
aS'image_02397'
p2525
aS'image_02398'
p2526
aS'image_02399'
p2527
aS'image_02400'
p2528
aS'image_02401'
p2529
aS'image_02402'
p2530
aS'image_02403'
p2531
aS'image_02404'
p2532
aS'image_02405'
p2533
aS'image_02406'
p2534
aS'image_02407'
p2535
aS'image_02408'
p2536
aS'image_02409'
p2537
aS'image_02410'
p2538
aS'image_02411'
p2539
aS'image_02412'
p2540
aS'image_02413'
p2541
aS'image_02414'
p2542
aS'image_02415'
p2543
aS'image_02416'
p2544
aS'image_02417'
p2545
aS'image_02418'
p2546
aS'image_02419'
p2547
aS'image_02420'
p2548
aS'image_02355'
p2549
aS'image_02356'
p2550
aS'image_02357'
p2551
aS'image_02358'
p2552
aS'image_02359'
p2553
aS'image_02360'
p2554
aS'image_02361'
p2555
aS'image_02362'
p2556
aS'image_02363'
p2557
aS'image_02364'
p2558
aS'image_02365'
p2559
aS'image_02366'
p2560
aS'image_02367'
p2561
aS'image_02368'
p2562
aS'image_02369'
p2563
aS'image_02370'
p2564
aS'image_02371'
p2565
aS'image_02372'
p2566
aS'image_02373'
p2567
aS'image_02374'
p2568
aS'image_02375'
p2569
aS'image_02376'
p2570
aS'image_02377'
p2571
aS'image_02378'
p2572
aS'image_02379'
p2573
aS'image_02380'
p2574
aS'image_02381'
p2575
aS'image_02382'
p2576
aS'image_02383'
p2577
aS'image_02384'
p2578
aS'image_02385'
p2579
aS'image_02386'
p2580
aS'image_02387'
p2581
aS'image_02422'
p2582
aS'image_02423'
p2583
aS'image_02424'
p2584
aS'image_02425'
p2585
aS'image_02426'
p2586
aS'image_02427'
p2587
aS'image_02428'
p2588
aS'image_02429'
p2589
aS'image_02430'
p2590
aS'image_02431'
p2591
aS'image_02432'
p2592
aS'image_02433'
p2593
aS'image_02434'
p2594
aS'image_02435'
p2595
aS'image_02436'
p2596
aS'image_02437'
p2597
aS'image_02438'
p2598
aS'image_02439'
p2599
aS'image_02440'
p2600
aS'image_02441'
p2601
aS'image_02442'
p2602
aS'image_02443'
p2603
aS'image_02444'
p2604
aS'image_02445'
p2605
aS'image_02334'
p2606
aS'image_02354'
p2607
aS'image_02388'
p2608
aS'image_02421'
p2609
aS'image_02335'
p2610
aS'image_02336'
p2611
aS'image_02337'
p2612
aS'image_02338'
p2613
aS'image_02339'
p2614
aS'image_02340'
p2615
aS'image_02341'
p2616
aS'image_02342'
p2617
aS'image_02343'
p2618
aS'image_02344'
p2619
aS'image_02345'
p2620
aS'image_02346'
p2621
aS'image_02347'
p2622
aS'image_02348'
p2623
aS'image_02349'
p2624
aS'image_02350'
p2625
aS'image_02351'
p2626
aS'image_02352'
p2627
aS'image_02353'
p2628
aS'image_01491'
p2629
aS'image_01492'
p2630
aS'image_01493'
p2631
aS'image_01494'
p2632
aS'image_01495'
p2633
aS'image_01496'
p2634
aS'image_01497'
p2635
aS'image_01498'
p2636
aS'image_01499'
p2637
aS'image_01500'
p2638
aS'image_01501'
p2639
aS'image_01502'
p2640
aS'image_01503'
p2641
aS'image_01504'
p2642
aS'image_01505'
p2643
aS'image_01506'
p2644
aS'image_01507'
p2645
aS'image_01508'
p2646
aS'image_01509'
p2647
aS'image_01510'
p2648
aS'image_01511'
p2649
aS'image_01512'
p2650
aS'image_01513'
p2651
aS'image_01514'
p2652
aS'image_01538'
p2653
aS'image_01539'
p2654
aS'image_01540'
p2655
aS'image_01541'
p2656
aS'image_01542'
p2657
aS'image_01543'
p2658
aS'image_01544'
p2659
aS'image_01545'
p2660
aS'image_01546'
p2661
aS'image_01547'
p2662
aS'image_01548'
p2663
aS'image_01549'
p2664
aS'image_01550'
p2665
aS'image_01551'
p2666
aS'image_01552'
p2667
aS'image_01553'
p2668
aS'image_01554'
p2669
aS'image_01555'
p2670
aS'image_01556'
p2671
aS'image_01557'
p2672
aS'image_01558'
p2673
aS'image_01559'
p2674
aS'image_01516'
p2675
aS'image_01517'
p2676
aS'image_01518'
p2677
aS'image_01519'
p2678
aS'image_01520'
p2679
aS'image_01521'
p2680
aS'image_01522'
p2681
aS'image_01523'
p2682
aS'image_01524'
p2683
aS'image_01525'
p2684
aS'image_01526'
p2685
aS'image_01527'
p2686
aS'image_01528'
p2687
aS'image_01529'
p2688
aS'image_01530'
p2689
aS'image_01531'
p2690
aS'image_01532'
p2691
aS'image_01533'
p2692
aS'image_01534'
p2693
aS'image_01535'
p2694
aS'image_01536'
p2695
aS'image_01561'
p2696
aS'image_01562'
p2697
aS'image_01563'
p2698
aS'image_01564'
p2699
aS'image_01565'
p2700
aS'image_01566'
p2701
aS'image_01567'
p2702
aS'image_01568'
p2703
aS'image_01569'
p2704
aS'image_01570'
p2705
aS'image_01571'
p2706
aS'image_01572'
p2707
aS'image_01573'
p2708
aS'image_01574'
p2709
aS'image_01575'
p2710
aS'image_01576'
p2711
aS'image_01577'
p2712
aS'image_01578'
p2713
aS'image_01579'
p2714
aS'image_01580'
p2715
aS'image_01581'
p2716
aS'image_01582'
p2717
aS'image_01583'
p2718
aS'image_01515'
p2719
aS'image_01537'
p2720
aS'image_01560'
p2721
aS'image_07142'
p2722
aS'image_07123'
p2723
aS'image_07124'
p2724
aS'image_07125'
p2725
aS'image_07126'
p2726
aS'image_07127'
p2727
aS'image_07128'
p2728
aS'image_07129'
p2729
aS'image_07130'
p2730
aS'image_07131'
p2731
aS'image_07132'
p2732
aS'image_07133'
p2733
aS'image_07134'
p2734
aS'image_07135'
p2735
aS'image_07136'
p2736
aS'image_07137'
p2737
aS'image_07138'
p2738
aS'image_07139'
p2739
aS'image_07140'
p2740
aS'image_07141'
p2741
aS'image_07143'
p2742
aS'image_07144'
p2743
aS'image_07145'
p2744
aS'image_07146'
p2745
aS'image_07147'
p2746
aS'image_07148'
p2747
aS'image_07149'
p2748
aS'image_07150'
p2749
aS'image_07151'
p2750
aS'image_07152'
p2751
aS'image_07153'
p2752
aS'image_07154'
p2753
aS'image_07155'
p2754
aS'image_07156'
p2755
aS'image_07157'
p2756
aS'image_07158'
p2757
aS'image_07159'
p2758
aS'image_07160'
p2759
aS'image_07161'
p2760
aS'image_08098'
p2761
a.